target datalayout = "e-m:e-p270:32:32-p271:32:32-p272:64:64-i64:64-i128:128-f80:128-n8:16:32:64-S128"
target triple = "x86_64-pc-linux-gnu"

%"class.icu_77::UObject" = type { ptr }
%"class.icu_77::FieldPosition" = type <{ %"class.icu_77::UObject", i32, i32, i32, [4 x i8] }>
%"class.icu_77::FieldPositionOnlyHandler" = type <{ %"class.icu_77::FieldPositionHandler.base", [4 x i8], ptr, i8, i8, [6 x i8] }>
%"class.icu_77::FieldPositionHandler.base" = type <{ ptr, i32 }>

; Function Attrs: mustprogress nounwind uwtable
define linkonce_odr void @_ZN6icu_7713FieldPosition11setEndIndexEi(ptr noundef nonnull align 8 dereferenceable(20) %0, i32 noundef %1) #0 comdat align 2 {
  %3 = alloca ptr, align 8
  %4 = alloca i32, align 4
  store ptr %0, ptr %3, align 8, !tbaa !212
  store i32 %1, ptr %4, align 4, !tbaa !14
  %5 = load ptr, ptr %3, align 8
  %6 = load i32, ptr %4, align 4, !tbaa !14
  %7 = getelementptr inbounds nuw %"class.icu_77::FieldPosition", ptr %5, i32 0, i32 3
  store i32 %6, ptr %7, align 8, !tbaa !319
  ret void
}

; Function Attrs: mustprogress nounwind uwtable
define linkonce_odr void @_ZN6icu_7713FieldPosition13setBeginIndexEi(ptr noundef nonnull align 8 dereferenceable(20) %0, i32 noundef %1) #0 comdat align 2 {
  %3 = alloca ptr, align 8
  %4 = alloca i32, align 4
  store ptr %0, ptr %3, align 8, !tbaa !212
  store i32 %1, ptr %4, align 4, !tbaa !14
  %5 = load ptr, ptr %3, align 8
  %6 = load i32, ptr %4, align 4, !tbaa !14
  %7 = getelementptr inbounds nuw %"class.icu_77::FieldPosition", ptr %5, i32 0, i32 2
  store i32 %6, ptr %7, align 4, !tbaa !318
  ret void
}

; Function Attrs: inlinehint mustprogress nounwind uwtable
define internal noundef signext i8 @_ZL9U_FAILURE10UErrorCode(i32 noundef %0) #2 {
  %2 = alloca i32, align 4
  store i32 %0, ptr %2, align 4, !tbaa !15
  %3 = load i32, ptr %2, align 4, !tbaa !15
  %4 = icmp sgt i32 %3, 0
  %5 = zext i1 %4 to i8
  ret i8 %5
}

; Function Attrs: mustprogress uwtable
define void @_ZN6icu_7713DecimalFormat19fieldPositionHelperERKNS_6number4impl20UFormattedNumberDataERNS_13FieldPositionEiR10UErrorCode(ptr noundef nonnull align 8 dereferenceable(408) %0, ptr noundef nonnull align 8 dereferenceable(20) %1, i32 noundef %2, ptr noundef nonnull align 4 dereferenceable(4) %3) #1 align 2 personality ptr @__gxx_personality_v0 {
  %5 = alloca ptr, align 8
  %6 = alloca ptr, align 8
  %7 = alloca i32, align 4
  %8 = alloca ptr, align 8
  %9 = alloca i8, align 1
  %10 = alloca %"class.icu_77::FieldPositionOnlyHandler", align 8
  %11 = alloca ptr, align 8
  %12 = alloca i32, align 4
  store ptr %0, ptr %5, align 8, !tbaa !216
  store ptr %1, ptr %6, align 8, !tbaa !212
  store i32 %2, ptr %7, align 4, !tbaa !14
  store ptr %3, ptr %8, align 8, !tbaa !22
  %13 = load ptr, ptr %8, align 8, !tbaa !22
  %14 = load i32, ptr %13, align 4, !tbaa !15
  %15 = call noundef signext i8 @_ZL9U_FAILURE10UErrorCode(i32 noundef %14)
  %16 = icmp ne i8 %15, 0
  br i1 %16, label %17, label %18

17:                                               ; preds = %4
  br label %41

18:                                               ; preds = %4
  %19 = load ptr, ptr %6, align 8, !tbaa !212
  call void @_ZN6icu_7713FieldPosition13setBeginIndexEi(ptr noundef nonnull align 8 dereferenceable(20) %19, i32 noundef 0)
  %20 = load ptr, ptr %6, align 8, !tbaa !212
  call void @_ZN6icu_7713FieldPosition11setEndIndexEi(ptr noundef nonnull align 8 dereferenceable(20) %20, i32 noundef 0)
  call void @llvm.lifetime.start.p0(i64 1, ptr %9) #15
  %21 = load ptr, ptr %5, align 8, !tbaa !216
  %22 = load ptr, ptr %6, align 8, !tbaa !212
  %23 = load ptr, ptr %8, align 8, !tbaa !22
  %24 = call noundef signext i8 @_ZNK6icu_7731FormattedValueStringBuilderImpl17nextFieldPositionERNS_13FieldPositionER10UErrorCode(ptr noundef nonnull align 8 dereferenceable(300) %21, ptr noundef nonnull align 8 dereferenceable(20) %22, ptr noundef nonnull align 4 dereferenceable(4) %23)
  %25 = icmp ne i8 %24, 0
  %26 = zext i1 %25 to i8
  store i8 %26, ptr %9, align 1, !tbaa !229
  %27 = load i8, ptr %9, align 1, !tbaa !229, !range !128, !noundef !129
  %28 = trunc i8 %27 to i1
  br i1 %28, label %29, label %40

29:                                               ; preds = %18
  %30 = load i32, ptr %7, align 4, !tbaa !14
  %31 = icmp ne i32 %30, 0
  br i1 %31, label %32, label %40

32:                                               ; preds = %29
  call void @llvm.lifetime.start.p0(i64 32, ptr %10) #15
  %33 = load ptr, ptr %6, align 8, !tbaa !212
  call void @_ZN6icu_7724FieldPositionOnlyHandlerC1ERNS_13FieldPositionE(ptr noundef nonnull align 8 dereferenceable(26) %10, ptr noundef nonnull align 8 dereferenceable(20) %33)
  %34 = load i32, ptr %7, align 4, !tbaa !14
  invoke void @_ZN6icu_7724FieldPositionOnlyHandler9shiftLastEi(ptr noundef nonnull align 8 dereferenceable(26) %10, i32 noundef %34)
          to label %35 unwind label %36

35:                                               ; preds = %32
  call void @_ZN6icu_7724FieldPositionOnlyHandlerD1Ev(ptr noundef nonnull align 8 dereferenceable(26) %10) #15
  call void @llvm.lifetime.end.p0(i64 32, ptr %10) #15
  br label %40

36:                                               ; preds = %32
  %37 = landingpad { ptr, i32 }
          cleanup
  %38 = extractvalue { ptr, i32 } %37, 0
  store ptr %38, ptr %11, align 8
  %39 = extractvalue { ptr, i32 } %37, 1
  store i32 %39, ptr %12, align 4
  call void @_ZN6icu_7724FieldPositionOnlyHandlerD1Ev(ptr noundef nonnull align 8 dereferenceable(26) %10) #15
  call void @llvm.lifetime.end.p0(i64 32, ptr %10) #15
  call void @llvm.lifetime.end.p0(i64 1, ptr %9) #15
  br label %42

40:                                               ; preds = %35, %29, %18
  call void @llvm.lifetime.end.p0(i64 1, ptr %9) #15
  br label %41

41:                                               ; preds = %40, %17
  ret void

42:                                               ; preds = %36
  %43 = load ptr, ptr %11, align 8
  %44 = load i32, ptr %12, align 4
  %45 = insertvalue { ptr, i32 } poison, ptr %43, 0
  %46 = insertvalue { ptr, i32 } %45, i32 %44, 1
  resume { ptr, i32 } %46
}