; Function Attrs: mustprogress uwtable
define void @_ZN6icu_7713DecimalFormat19fieldPositionHelperERKNS_6number4impl20UFormattedNumberDataERNS_13FieldPositionEiR10UErrorCode(ptr noundef nonnull align 8 dereferenceable(408) %0, ptr noundef nonnull align 8 dereferenceable(20) %1, i32 noundef %2, ptr noundef nonnull align 4 dereferenceable(4) %3) local_unnamed_addr #1 align 2 personality ptr @__gxx_personality_v0 {
  %5 = alloca %"class.icu_77::FieldPositionOnlyHandler", align 8
  %6 = load i32, ptr %3, align 4, !tbaa !13
  %7 = icmp slt i32 %6, 1
  br i1 %7, label %8, label %18

8:                                                ; preds = %4
  %9 = getelementptr inbounds nuw i8, ptr %1, i64 12
  store i32 0, ptr %9, align 4, !tbaa !161
  %10 = getelementptr inbounds nuw i8, ptr %1, i64 16
  store i32 0, ptr %10, align 8, !tbaa !162
  %11 = tail call noundef signext i8 @_ZNK6icu_7731FormattedValueStringBuilderImpl17nextFieldPositionERNS_13FieldPositionER10UErrorCode(ptr noundef nonnull align 8 dereferenceable(300) %0, ptr noundef nonnull align 8 dereferenceable(20) %1, ptr noundef nonnull align 4 dereferenceable(4) %3)
  %12 = icmp ne i8 %11, 0
  %13 = icmp ne i32 %2, 0
  %or.cond = and i1 %13, %12
  br i1 %or.cond, label %14, label %18

14:                                               ; preds = %8
  call void @llvm.lifetime.start.p0(i64 32, ptr nonnull %5) #19
  call void @_ZN6icu_7724FieldPositionOnlyHandlerC1ERNS_13FieldPositionE(ptr noundef nonnull align 8 dereferenceable(26) %5, ptr noundef nonnull align 8 dereferenceable(20) %1)
  invoke void @_ZN6icu_7724FieldPositionOnlyHandler9shiftLastEi(ptr noundef nonnull align 8 dereferenceable(26) %5, i32 noundef %2)
          to label %15 unwind label %16

15:                                               ; preds = %14
  call void @_ZN6icu_7724FieldPositionOnlyHandlerD1Ev(ptr noundef nonnull align 8 dereferenceable(26) %5) #19
  call void @llvm.lifetime.end.p0(i64 32, ptr nonnull %5) #19
  br label %18

16:                                               ; preds = %14
  %17 = landingpad { ptr, i32 }
          cleanup
  call void @_ZN6icu_7724FieldPositionOnlyHandlerD1Ev(ptr noundef nonnull align 8 dereferenceable(26) %5) #19
  call void @llvm.lifetime.end.p0(i64 32, ptr nonnull %5) #19
  resume { ptr, i32 } %17

18:                                               ; preds = %8, %15, %4
  ret void
}